target datalayout = "e-m:e-p270:32:32-p271:32:32-p272:64:64-i64:64-i128:128-f80:128-n8:16:32:64-S128"
target triple = "x86_64-pc-linux-gnu"

%struct.SDL_UDEV_Symbols = type { ptr, ptr, ptr, ptr, ptr, ptr, ptr, ptr, ptr, ptr, ptr, ptr, ptr, ptr, ptr, ptr, ptr, ptr, ptr, ptr, ptr, ptr, ptr, ptr, ptr, ptr, ptr }
%struct.PLATFORM_hid_device_ = type { i32, i32, i32, ptr, ptr }
%struct.stat = type { i64, i64, i64, i32, i32, i32, i32, i64, i64, i64, i64, %struct.timespec, %struct.timespec, %struct.timespec, [3 x i64] }
%struct.timespec = type { i64, i64 }

@.str.1 = private unnamed_addr constant [1 x i8] zeroinitializer, align 1
@udev_ctx = internal global ptr null, align 8
@.str.7 = private unnamed_addr constant [25 x i8] c"Couldn't allocate memory\00", align 1
@.str.8 = private unnamed_addr constant [59 x i8] c"ioctl(GRDESCSIZE) error for '%s', not a HIDRAW device?: %s\00", align 1
@.str.9 = private unnamed_addr constant [43 x i8] c"Failed to open a device with path '%s': %s\00", align 1
@last_global_error_str = internal global ptr null, align 8
@.str.31 = private unnamed_addr constant [3 x i8] c"%s\00", align 1
@.str.39 = private unnamed_addr constant [4 x i8] c"hid\00", align 1
@.str.40 = private unnamed_addr constant [7 x i8] c"uevent\00", align 1
@.str.52 = private unnamed_addr constant [19 x i8] c"Can't create udev\0A\00", align 1

; Function Attrs: nounwind uwtable
define internal void @register_error_str(ptr noundef %0, ptr noundef %1) #0 {
  %3 = alloca ptr, align 8
  %4 = alloca ptr, align 8
  store ptr %0, ptr %3, align 8
  store ptr %1, ptr %4, align 8
  %5 = load ptr, ptr %3, align 8
  %6 = load ptr, ptr %5, align 8
  call void @free(ptr noundef %6) #10
  %7 = load ptr, ptr %4, align 8
  %8 = icmp ne ptr %7, null
  br i1 %8, label %9, label %12

9:                                                ; preds = %2
  %10 = load ptr, ptr %4, align 8
  %11 = call zeroext i1 (ptr, ...) @SDL_SetError_REAL(ptr noundef @.str.31, ptr noundef %10)
  br label %14

12:                                               ; preds = %2
  %13 = call zeroext i1 @SDL_ClearError_REAL()
  br label %14

14:                                               ; preds = %12, %9
  ret void
}

; Function Attrs: nounwind uwtable
define internal i32 @is_BLE(ptr noundef %0) #0 {
  %2 = alloca i32, align 4
  %3 = alloca ptr, align 8
  %4 = alloca ptr, align 8
  %5 = alloca ptr, align 8
  %6 = alloca ptr, align 8
  %7 = alloca %struct.stat, align 8
  %8 = alloca i32, align 4
  %9 = alloca i32, align 4
  %10 = alloca i16, align 2
  %11 = alloca i16, align 2
  %12 = alloca i32, align 4
  %13 = alloca ptr, align 8
  %14 = alloca ptr, align 8
  store ptr %0, ptr %3, align 8
  call void @llvm.lifetime.start.p0(i64 8, ptr %4) #10
  call void @llvm.lifetime.start.p0(i64 8, ptr %5) #10
  call void @llvm.lifetime.start.p0(i64 8, ptr %6) #10
  call void @llvm.lifetime.start.p0(i64 144, ptr %7) #10
  call void @llvm.lifetime.start.p0(i64 4, ptr %8) #10
  %15 = load ptr, ptr @udev_ctx, align 8
  %16 = getelementptr inbounds nuw %struct.SDL_UDEV_Symbols, ptr %15, i32 0, i32 23
  %17 = load ptr, ptr %16, align 8
  %18 = call ptr %17()
  store ptr %18, ptr %4, align 8
  %19 = load ptr, ptr %4, align 8
  %20 = icmp ne ptr %19, null
  br i1 %20, label %23, label %21

21:                                               ; preds = %1
  %22 = call i32 (ptr, ...) @printf(ptr noundef @.str.52)
  store i32 -1, ptr %2, align 4
  store i32 1, ptr %9, align 4
  br label %81

23:                                               ; preds = %1
  %24 = load ptr, ptr %3, align 8
  %25 = getelementptr inbounds nuw %struct.PLATFORM_hid_device_, ptr %24, i32 0, i32 0
  %26 = load i32, ptr %25, align 8
  %27 = call i32 @fstat(i32 noundef %26, ptr noundef %7) #10
  %28 = icmp slt i32 %27, 0
  br i1 %28, label %29, label %34

29:                                               ; preds = %23
  %30 = load ptr, ptr @udev_ctx, align 8
  %31 = getelementptr inbounds nuw %struct.SDL_UDEV_Symbols, ptr %30, i32 0, i32 24
  %32 = load ptr, ptr %31, align 8
  %33 = load ptr, ptr %4, align 8
  call void %32(ptr noundef %33)
  store i32 -1, ptr %2, align 4
  store i32 1, ptr %9, align 4
  br label %81

34:                                               ; preds = %23
  store i32 0, ptr %8, align 4
  %35 = load ptr, ptr @udev_ctx, align 8
  %36 = getelementptr inbounds nuw %struct.SDL_UDEV_Symbols, ptr %35, i32 0, i32 25
  %37 = load ptr, ptr %36, align 8
  %38 = load ptr, ptr %4, align 8
  %39 = getelementptr inbounds nuw %struct.stat, ptr %7, i32 0, i32 7
  %40 = load i64, ptr %39, align 8
  %41 = call ptr %37(ptr noundef %38, i8 noundef signext 99, i64 noundef %40)
  store ptr %41, ptr %5, align 8
  %42 = load ptr, ptr %5, align 8
  %43 = icmp ne ptr %42, null
  br i1 %43, label %44, label %75

44:                                               ; preds = %34
  %45 = load ptr, ptr @udev_ctx, align 8
  %46 = getelementptr inbounds nuw %struct.SDL_UDEV_Symbols, ptr %45, i32 0, i32 4
  %47 = load ptr, ptr %46, align 8
  %48 = load ptr, ptr %5, align 8
  %49 = call ptr %47(ptr noundef %48, ptr noundef @.str.39, ptr noundef null)
  store ptr %49, ptr %6, align 8
  %50 = load ptr, ptr %6, align 8
  %51 = icmp ne ptr %50, null
  br i1 %51, label %52, label %70

52:                                               ; preds = %44
  call void @llvm.lifetime.start.p0(i64 2, ptr %10) #10
  store i16 0, ptr %10, align 2
  call void @llvm.lifetime.start.p0(i64 2, ptr %11) #10
  store i16 0, ptr %11, align 2
  call void @llvm.lifetime.start.p0(i64 4, ptr %12) #10
  store i32 0, ptr %12, align 4
  call void @llvm.lifetime.start.p0(i64 8, ptr %13) #10
  store ptr null, ptr %13, align 8
  call void @llvm.lifetime.start.p0(i64 8, ptr %14) #10
  store ptr null, ptr %14, align 8
  %53 = load ptr, ptr @udev_ctx, align 8
  %54 = getelementptr inbounds nuw %struct.SDL_UDEV_Symbols, ptr %53, i32 0, i32 6
  %55 = load ptr, ptr %54, align 8
  %56 = load ptr, ptr %6, align 8
  %57 = call ptr %55(ptr noundef %56, ptr noundef @.str.40)
  %58 = call i32 @parse_uevent_info(ptr noundef %57, ptr noundef %12, ptr noundef %10, ptr noundef %11, ptr noundef %13, ptr noundef %14)
  %59 = load ptr, ptr %13, align 8
  call void @free(ptr noundef %59) #10
  %60 = load ptr, ptr %14, align 8
  call void @free(ptr noundef %60) #10
  %61 = load i32, ptr %12, align 4
  %62 = icmp eq i32 %61, 5
  br i1 %62, label %63, label %69

63:                                               ; preds = %52
  %64 = load i16, ptr %10, align 2
  %65 = zext i16 %64 to i32
  %66 = icmp eq i32 %65, 10462
  br i1 %66, label %67, label %68

67:                                               ; preds = %63
  store i32 1, ptr %8, align 4
  br label %68

68:                                               ; preds = %67, %63
  br label %69

69:                                               ; preds = %68, %52
  call void @llvm.lifetime.end.p0(i64 8, ptr %14) #10
  call void @llvm.lifetime.end.p0(i64 8, ptr %13) #10
  call void @llvm.lifetime.end.p0(i64 4, ptr %12) #10
  call void @llvm.lifetime.end.p0(i64 2, ptr %11) #10
  call void @llvm.lifetime.end.p0(i64 2, ptr %10) #10
  br label %70

70:                                               ; preds = %69, %44
  %71 = load ptr, ptr @udev_ctx, align 8
  %72 = getelementptr inbounds nuw %struct.SDL_UDEV_Symbols, ptr %71, i32 0, i32 8
  %73 = load ptr, ptr %72, align 8
  %74 = load ptr, ptr %5, align 8
  call void %73(ptr noundef %74)
  br label %75

75:                                               ; preds = %70, %34
  %76 = load ptr, ptr @udev_ctx, align 8
  %77 = getelementptr inbounds nuw %struct.SDL_UDEV_Symbols, ptr %76, i32 0, i32 24
  %78 = load ptr, ptr %77, align 8
  %79 = load ptr, ptr %4, align 8
  call void %78(ptr noundef %79)
  %80 = load i32, ptr %8, align 4
  store i32 %80, ptr %2, align 4
  store i32 1, ptr %9, align 4
  br label %81

81:                                               ; preds = %75, %29, %21
  call void @llvm.lifetime.end.p0(i64 4, ptr %8) #10
  call void @llvm.lifetime.end.p0(i64 144, ptr %7) #10
  call void @llvm.lifetime.end.p0(i64 8, ptr %6) #10
  call void @llvm.lifetime.end.p0(i64 8, ptr %5) #10
  call void @llvm.lifetime.end.p0(i64 8, ptr %4) #10
  %82 = load i32, ptr %2, align 4
  ret i32 %82
}

; Function Attrs: nounwind uwtable
define internal void @register_global_error(ptr noundef %0) #0 {
  %2 = alloca ptr, align 8
  store ptr %0, ptr %2, align 8
  %3 = load ptr, ptr %2, align 8
  call void @register_error_str(ptr noundef @last_global_error_str, ptr noundef %3)
  ret void
}

; Function Attrs: nounwind uwtable
define internal ptr @PLATFORM_new_hid_device() #0 {
  %1 = alloca ptr, align 8
  %2 = alloca ptr, align 8
  %3 = alloca i32, align 4
  call void @llvm.lifetime.start.p0(i64 8, ptr %2) #10
  %4 = call noalias ptr @calloc(i64 noundef 1, i64 noundef 32) #12
  store ptr %4, ptr %2, align 8
  %5 = load ptr, ptr %2, align 8
  %6 = icmp eq ptr %5, null
  br i1 %6, label %7, label %8

7:                                                ; preds = %0
  store ptr null, ptr %1, align 8
  store i32 1, ptr %3, align 4
  br label %18

8:                                                ; preds = %0
  %9 = load ptr, ptr %2, align 8
  %10 = getelementptr inbounds nuw %struct.PLATFORM_hid_device_, ptr %9, i32 0, i32 0
  store i32 -1, ptr %10, align 8
  %11 = load ptr, ptr %2, align 8
  %12 = getelementptr inbounds nuw %struct.PLATFORM_hid_device_, ptr %11, i32 0, i32 1
  store i32 1, ptr %12, align 4
  %13 = load ptr, ptr %2, align 8
  %14 = getelementptr inbounds nuw %struct.PLATFORM_hid_device_, ptr %13, i32 0, i32 3
  store ptr null, ptr %14, align 8
  %15 = load ptr, ptr %2, align 8
  %16 = getelementptr inbounds nuw %struct.PLATFORM_hid_device_, ptr %15, i32 0, i32 4
  store ptr null, ptr %16, align 8
  %17 = load ptr, ptr %2, align 8
  store ptr %17, ptr %1, align 8
  store i32 1, ptr %3, align 4
  br label %18

18:                                               ; preds = %8, %7
  call void @llvm.lifetime.end.p0(i64 8, ptr %2) #10
  %19 = load ptr, ptr %1, align 8
  ret ptr %19
}

; Function Attrs: nounwind uwtable
define hidden i32 @PLATFORM_hid_init() #0 {
  %1 = alloca ptr, align 8
  call void @llvm.lifetime.start.p0(i64 8, ptr %1) #10
  call void @register_global_error(ptr noundef null)
  %2 = call ptr @setlocale(i32 noundef 0, ptr noundef null) #10
  store ptr %2, ptr %1, align 8
  %3 = load ptr, ptr %1, align 8
  %4 = icmp ne ptr %3, null
  br i1 %4, label %7, label %5

5:                                                ; preds = %0
  %6 = call ptr @setlocale(i32 noundef 0, ptr noundef @.str.1) #10
  br label %7

7:                                                ; preds = %5, %0
  call void @llvm.lifetime.end.p0(i64 8, ptr %1) #10
  ret i32 0
}

; Function Attrs: nounwind uwtable
define hidden ptr @PLATFORM_hid_open_path(ptr noundef %0) #0 {
  %2 = alloca ptr, align 8
  %3 = alloca ptr, align 8
  %4 = alloca ptr, align 8
  %5 = alloca i32, align 4
  %6 = alloca i32, align 4
  %7 = alloca i32, align 4
  %8 = alloca i32, align 4
  %9 = alloca i32, align 4
  store ptr %0, ptr %3, align 8
  call void @llvm.lifetime.start.p0(i64 8, ptr %4) #10
  store ptr null, ptr %4, align 8
  %10 = call i32 @PLATFORM_hid_init()
  %11 = call ptr @PLATFORM_new_hid_device()
  store ptr %11, ptr %4, align 8
  %12 = load ptr, ptr %4, align 8
  %13 = icmp ne ptr %12, null
  br i1 %13, label %15, label %14

14:                                               ; preds = %1
  call void @register_global_error(ptr noundef @.str.7)
  store ptr null, ptr %2, align 8
  store i32 1, ptr %5, align 4
  br label %72

15:                                               ; preds = %1
  call void @llvm.lifetime.start.p0(i64 4, ptr %6) #10
  store i32 50, ptr %6, align 4
  call void @llvm.lifetime.start.p0(i64 4, ptr %7) #10
  store i32 1, ptr %7, align 4
  br label %16

16:                                               ; preds = %35, %15
  %17 = load i32, ptr %7, align 4
  %18 = icmp sle i32 %17, 50
  br i1 %18, label %19, label %38

19:                                               ; preds = %16
  %20 = load ptr, ptr %3, align 8
  %21 = call i32 (ptr, i32, ...) @open(ptr noundef %20, i32 noundef 524290)
  %22 = load ptr, ptr %4, align 8
  %23 = getelementptr inbounds nuw %struct.PLATFORM_hid_device_, ptr %22, i32 0, i32 0
  store i32 %21, ptr %23, align 8
  %24 = load ptr, ptr %4, align 8
  %25 = getelementptr inbounds nuw %struct.PLATFORM_hid_device_, ptr %24, i32 0, i32 0
  %26 = load i32, ptr %25, align 8
  %27 = icmp slt i32 %26, 0
  br i1 %27, label %28, label %34

28:                                               ; preds = %19
  %29 = call ptr @__errno_location() #13
  %30 = load i32, ptr %29, align 4
  %31 = icmp eq i32 %30, 13
  br i1 %31, label %32, label %34

32:                                               ; preds = %28
  %33 = call i32 @usleep(i32 noundef 1000)
  br label %35

34:                                               ; preds = %28, %19
  br label %38

35:                                               ; preds = %32
  %36 = load i32, ptr %7, align 4
  %37 = add nsw i32 %36, 1
  store i32 %37, ptr %7, align 4
  br label %16, !llvm.loop !10

38:                                               ; preds = %34, %16
  %39 = load ptr, ptr %4, align 8
  %40 = getelementptr inbounds nuw %struct.PLATFORM_hid_device_, ptr %39, i32 0, i32 0
  %41 = load i32, ptr %40, align 8
  %42 = icmp sge i32 %41, 0
  br i1 %42, label %43, label %65

43:                                               ; preds = %38
  call void @llvm.lifetime.start.p0(i64 4, ptr %8) #10
  call void @llvm.lifetime.start.p0(i64 4, ptr %9) #10
  store i32 0, ptr %9, align 4
  %44 = load ptr, ptr %4, align 8
  %45 = getelementptr inbounds nuw %struct.PLATFORM_hid_device_, ptr %44, i32 0, i32 0
  %46 = load i32, ptr %45, align 8
  %47 = call i32 (i32, i64, ...) @ioctl(i32 noundef %46, i64 noundef 2147764225, ptr noundef %9) #10
  store i32 %47, ptr %8, align 4
  %48 = load i32, ptr %8, align 4
  %49 = icmp slt i32 %48, 0
  br i1 %49, label %50, label %56

50:                                               ; preds = %43
  %51 = load ptr, ptr %4, align 8
  call void @PLATFORM_hid_close(ptr noundef %51)
  %52 = load ptr, ptr %3, align 8
  %53 = call ptr @__errno_location() #13
  %54 = load i32, ptr %53, align 4
  %55 = call ptr @strerror(i32 noundef %54) #10
  call void (ptr, ...) @register_global_error_format(ptr noundef @.str.8, ptr noundef %52, ptr noundef %55)
  store ptr null, ptr %2, align 8
  store i32 1, ptr %5, align 4
  br label %64

56:                                               ; preds = %43
  %57 = load ptr, ptr %4, align 8
  %58 = call i32 @is_BLE(ptr noundef %57)
  %59 = icmp eq i32 %58, 1
  %60 = zext i1 %59 to i32
  %61 = load ptr, ptr %4, align 8
  %62 = getelementptr inbounds nuw %struct.PLATFORM_hid_device_, ptr %61, i32 0, i32 2
  store i32 %60, ptr %62, align 8
  %63 = load ptr, ptr %4, align 8
  store ptr %63, ptr %2, align 8
  store i32 1, ptr %5, align 4
  br label %64

64:                                               ; preds = %56, %50
  call void @llvm.lifetime.end.p0(i64 4, ptr %9) #10
  call void @llvm.lifetime.end.p0(i64 4, ptr %8) #10
  br label %71

65:                                               ; preds = %38
  %66 = load ptr, ptr %4, align 8
  call void @free(ptr noundef %66) #10
  %67 = load ptr, ptr %3, align 8
  %68 = call ptr @__errno_location() #13
  %69 = load i32, ptr %68, align 4
  %70 = call ptr @strerror(i32 noundef %69) #10
  call void (ptr, ...) @register_global_error_format(ptr noundef @.str.9, ptr noundef %67, ptr noundef %70)
  store ptr null, ptr %2, align 8
  store i32 1, ptr %5, align 4
  br label %71

71:                                               ; preds = %65, %64
  call void @llvm.lifetime.end.p0(i64 4, ptr %7) #10
  call void @llvm.lifetime.end.p0(i64 4, ptr %6) #10
  br label %72

72:                                               ; preds = %71, %14
  call void @llvm.lifetime.end.p0(i64 8, ptr %4) #10
  %73 = load ptr, ptr %2, align 8
  ret ptr %73
}