; Function Attrs: nounwind uwtable
define hidden noundef ptr @PLATFORM_hid_open_path(ptr noundef %0) local_unnamed_addr #1 {
  %2 = alloca %struct.stat, align 8
  %3 = alloca i16, align 2
  %4 = alloca i16, align 2
  %5 = alloca i32, align 4
  %6 = alloca ptr, align 8
  %7 = alloca ptr, align 8
  %8 = alloca i32, align 4
  %9 = tail call zeroext i1 @SDL_ClearError_REAL() #22
  %10 = tail call ptr @setlocale(i32 noundef 0, ptr noundef null) #22
  %.not.i = icmp eq ptr %10, null
  br i1 %.not.i, label %11, label %PLATFORM_hid_init.exit

11:                                               ; preds = %1
  %12 = tail call ptr @setlocale(i32 noundef 0, ptr noundef nonnull @.str.1) #22
  br label %PLATFORM_hid_init.exit

PLATFORM_hid_init.exit:                           ; preds = %1, %11
  %13 = tail call noalias dereferenceable_or_null(32) ptr @calloc(i64 noundef 1, i64 noundef 32) #24
  %14 = icmp eq ptr %13, null
  br i1 %14, label %16, label %PLATFORM_new_hid_device.exit

PLATFORM_new_hid_device.exit:                     ; preds = %PLATFORM_hid_init.exit
  %15 = getelementptr inbounds nuw i8, ptr %13, i64 4
  store i32 1, ptr %15, align 4
  br label %18

16:                                               ; preds = %PLATFORM_hid_init.exit
  %17 = tail call zeroext i1 (ptr, ...) @SDL_SetError_REAL(ptr noundef nonnull @.str.31, ptr noundef nonnull @.str.7) #22
  br label %84

18:                                               ; preds = %PLATFORM_new_hid_device.exit, %25
  %.01619 = phi i32 [ 1, %PLATFORM_new_hid_device.exit ], [ %27, %25 ]
  %19 = tail call i32 (ptr, i32, ...) @open(ptr noundef %0, i32 noundef 524290) #22
  store i32 %19, ptr %13, align 8
  %20 = icmp slt i32 %19, 0
  br i1 %20, label %21, label %.thread

21:                                               ; preds = %18
  %22 = tail call ptr @__errno_location() #25
  %23 = load i32, ptr %22, align 4
  %24 = icmp eq i32 %23, 13
  br i1 %24, label %25, label %81

25:                                               ; preds = %21
  %26 = tail call i32 @usleep(i32 noundef 1000) #22
  %27 = add nuw nsw i32 %.01619, 1
  %exitcond.not = icmp eq i32 %27, 51
  br i1 %exitcond.not, label %81, label %18, !llvm.loop !11

.thread:                                          ; preds = %18
  call void @llvm.lifetime.start.p0(i64 4, ptr nonnull %8) #22
  store i32 0, ptr %8, align 4
  %28 = call i32 (i32, i64, ...) @ioctl(i32 noundef %19, i64 noundef 2147764225, ptr noundef nonnull %8) #22
  %29 = icmp slt i32 %28, 0
  br i1 %29, label %30, label %34

30:                                               ; preds = %.thread
  call void @PLATFORM_hid_close(ptr noundef nonnull %13)
  %31 = tail call ptr @__errno_location() #25
  %32 = load i32, ptr %31, align 4
  %33 = call ptr @strerror(i32 noundef %32) #22
  call void (ptr, ...) @register_global_error_format(ptr noundef nonnull @.str.8, ptr noundef %0, ptr noundef %33)
  br label %80

34:                                               ; preds = %.thread
  call void @llvm.lifetime.start.p0(i64 144, ptr nonnull %2) #22
  %35 = load ptr, ptr @udev_ctx, align 8
  %36 = getelementptr inbounds nuw i8, ptr %35, i64 184
  %37 = load ptr, ptr %36, align 8
  %38 = call ptr %37() #22
  %.not.i18 = icmp eq ptr %38, null
  br i1 %.not.i18, label %39, label %40

39:                                               ; preds = %34
  %puts.i = call i32 @puts(ptr nonnull dereferenceable(1) @str)
  br label %is_BLE.exit

40:                                               ; preds = %34
  %41 = call i32 @fstat(i32 noundef %19, ptr noundef nonnull %2) #22
  %42 = icmp slt i32 %41, 0
  %43 = load ptr, ptr @udev_ctx, align 8
  br i1 %42, label %44, label %47

44:                                               ; preds = %40
  %45 = getelementptr inbounds nuw i8, ptr %43, i64 192
  %46 = load ptr, ptr %45, align 8
  call void %46(ptr noundef nonnull %38) #22
  br label %is_BLE.exit

47:                                               ; preds = %40
  %48 = getelementptr inbounds nuw i8, ptr %43, i64 200
  %49 = load ptr, ptr %48, align 8
  %50 = getelementptr inbounds nuw i8, ptr %2, i64 40
  %51 = load i64, ptr %50, align 8
  %52 = call ptr %49(ptr noundef nonnull %38, i8 noundef signext 99, i64 noundef %51) #22
  %.not17.i = icmp eq ptr %52, null
  br i1 %.not17.i, label %75, label %53

53:                                               ; preds = %47
  %54 = load ptr, ptr @udev_ctx, align 8
  %55 = getelementptr inbounds nuw i8, ptr %54, i64 32
  %56 = load ptr, ptr %55, align 8
  %57 = call ptr %56(ptr noundef nonnull %52, ptr noundef nonnull @.str.39, ptr noundef null) #22
  %.not18.i = icmp eq ptr %57, null
  br i1 %.not18.i, label %71, label %58

58:                                               ; preds = %53
  call void @llvm.lifetime.start.p0(i64 2, ptr nonnull %3) #22
  store i16 0, ptr %3, align 2
  call void @llvm.lifetime.start.p0(i64 2, ptr nonnull %4) #22
  store i16 0, ptr %4, align 2
  call void @llvm.lifetime.start.p0(i64 4, ptr nonnull %5) #22
  store i32 0, ptr %5, align 4
  call void @llvm.lifetime.start.p0(i64 8, ptr nonnull %6) #22
  store ptr null, ptr %6, align 8
  call void @llvm.lifetime.start.p0(i64 8, ptr nonnull %7) #22
  store ptr null, ptr %7, align 8
  %59 = load ptr, ptr @udev_ctx, align 8
  %60 = getelementptr inbounds nuw i8, ptr %59, i64 48
  %61 = load ptr, ptr %60, align 8
  %62 = call ptr %61(ptr noundef nonnull %57, ptr noundef nonnull @.str.40) #22
  %63 = call fastcc i32 @parse_uevent_info(ptr noundef %62, ptr noundef %5, ptr noundef %3, ptr noundef %4, ptr noundef %6, ptr noundef %7)
  %64 = load ptr, ptr %6, align 8
  call void @free(ptr noundef %64) #22
  %65 = load ptr, ptr %7, align 8
  call void @free(ptr noundef %65) #22
  %66 = load i32, ptr %5, align 4
  %67 = icmp eq i32 %66, 5
  %68 = load i16, ptr %3, align 2
  %69 = icmp eq i16 %68, 10462
  %or.cond.i = select i1 %67, i1 %69, i1 false
  call void @llvm.lifetime.end.p0(i64 8, ptr nonnull %7) #22
  call void @llvm.lifetime.end.p0(i64 8, ptr nonnull %6) #22
  call void @llvm.lifetime.end.p0(i64 4, ptr nonnull %5) #22
  call void @llvm.lifetime.end.p0(i64 2, ptr nonnull %4) #22
  call void @llvm.lifetime.end.p0(i64 2, ptr nonnull %3) #22
  %70 = zext i1 %or.cond.i to i32
  br label %71

71:                                               ; preds = %58, %53
  %.1.i = phi i32 [ %70, %58 ], [ 0, %53 ]
  %72 = load ptr, ptr @udev_ctx, align 8
  %73 = getelementptr inbounds nuw i8, ptr %72, i64 64
  %74 = load ptr, ptr %73, align 8
  call void %74(ptr noundef nonnull %52) #22
  br label %75

75:                                               ; preds = %71, %47
  %.0.i = phi i32 [ %.1.i, %71 ], [ 0, %47 ]
  %76 = load ptr, ptr @udev_ctx, align 8
  %77 = getelementptr inbounds nuw i8, ptr %76, i64 192
  %78 = load ptr, ptr %77, align 8
  call void %78(ptr noundef nonnull %38) #22
  br label %is_BLE.exit

is_BLE.exit:                                      ; preds = %39, %44, %75
  %.013.i = phi i32 [ 0, %44 ], [ %.0.i, %75 ], [ 0, %39 ]
  call void @llvm.lifetime.end.p0(i64 144, ptr nonnull %2) #22
  %79 = getelementptr inbounds nuw i8, ptr %13, i64 8
  store i32 %.013.i, ptr %79, align 8
  br label %80

80:                                               ; preds = %is_BLE.exit, %30
  %.1 = phi ptr [ null, %30 ], [ %13, %is_BLE.exit ]
  call void @llvm.lifetime.end.p0(i64 4, ptr nonnull %8) #22
  br label %84

81:                                               ; preds = %25, %21
  tail call void @free(ptr noundef nonnull %13) #22
  %82 = load i32, ptr %22, align 4
  %83 = tail call ptr @strerror(i32 noundef %82) #22
  tail call void (ptr, ...) @register_global_error_format(ptr noundef nonnull @.str.9, ptr noundef %0, ptr noundef %83)
  br label %84

84:                                               ; preds = %80, %81, %16
  %.0 = phi ptr [ null, %16 ], [ %.1, %80 ], [ null, %81 ]
  ret ptr %.0
}